target datalayout = "e-m:e-p270:32:32-p271:32:32-p272:64:64-i64:64-i128:128-f80:128-n8:16:32:64-S128"
target triple = "x86_64-pc-linux-gnu"

%struct.slurmdb_assoc_rec = type { ptr, ptr, ptr, ptr, ptr, ptr, ptr, i32, i32, i32, i32, i32, ptr, ptr, ptr, ptr, ptr, ptr, i32, i32, i16, ptr, ptr, i32, i32, i32, ptr, ptr, ptr, ptr, ptr, ptr, ptr, ptr, i32, i32, ptr, i32, ptr, i32, ptr, i32, i32, ptr, ptr, ptr }
%struct.slurmdb_assoc_usage = type { i32, ptr, ptr, ptr, ptr, ptr, double, double, i32, ptr, double, ptr, double, i32, x86_fp80, x86_fp80, x86_fp80, ptr, i32, i32, x86_fp80, ptr }

@.str.144 = private unnamed_addr constant [1 x i8] zeroinitializer, align 1
@.str.153 = private unnamed_addr constant [2 x i8] c"-\00", align 1
@.str.191 = private unnamed_addr constant [7 x i8] c",%s%u,\00", align 1

; Function Attrs: nounwind uwtable
define internal zeroext i1 @_match_user_assoc(ptr noundef %0, ptr noundef %1, i1 noundef zeroext %2) #0 {
  %4 = alloca i1, align 1
  %5 = alloca ptr, align 8
  %6 = alloca ptr, align 8
  %7 = alloca i8, align 1
  %8 = alloca ptr, align 8
  %9 = alloca i8, align 1
  %10 = alloca ptr, align 8
  %11 = alloca [30 x i8], align 16
  %12 = alloca i32, align 4
  store ptr %0, ptr %5, align 8
  store ptr %1, ptr %6, align 8
  %13 = zext i1 %2 to i8
  store i8 %13, ptr %7, align 1
  call void @llvm.lifetime.start.p0(i64 8, ptr %8) #10
  call void @llvm.lifetime.start.p0(i64 1, ptr %9) #10
  store i8 0, ptr %9, align 1
  call void @llvm.lifetime.start.p0(i64 8, ptr %10) #10
  call void @llvm.lifetime.start.p0(i64 30, ptr %11) #10
  %14 = load ptr, ptr %5, align 8
  %15 = icmp ne ptr %14, null
  br i1 %15, label %16, label %23

16:                                               ; preds = %3
  %17 = load ptr, ptr %6, align 8
  %18 = icmp ne ptr %17, null
  br i1 %18, label %19, label %23

19:                                               ; preds = %16
  %20 = load ptr, ptr %6, align 8
  %21 = call i32 @list_count(ptr noundef %20)
  %22 = icmp ne i32 %21, 0
  br i1 %22, label %24, label %23

23:                                               ; preds = %19, %16, %3
  store i1 false, ptr %4, align 1
  store i32 1, ptr %12, align 4
  br label %61

24:                                               ; preds = %19
  %25 = load ptr, ptr %6, align 8
  %26 = call ptr @list_iterator_create(ptr noundef %25)
  store ptr %26, ptr %8, align 8
  br label %27

27:                                               ; preds = %55, %24
  %28 = load ptr, ptr %8, align 8
  %29 = call ptr @list_next(ptr noundef %28)
  store ptr %29, ptr %10, align 8
  %30 = icmp ne ptr %29, null
  br i1 %30, label %31, label %56

31:                                               ; preds = %27
  br label %32

32:                                               ; preds = %49, %31
  %33 = load ptr, ptr %10, align 8
  %34 = icmp ne ptr %33, null
  br i1 %34, label %35, label %55

35:                                               ; preds = %32
  %36 = getelementptr inbounds [30 x i8], ptr %11, i64 0, i64 0
  %37 = load i8, ptr %7, align 1, !range !11, !noundef !12
  %38 = trunc i8 %37 to i1
  %39 = select i1 %38, ptr @.str.153, ptr @.str.144
  %40 = load ptr, ptr %10, align 8
  %41 = getelementptr inbounds nuw %struct.slurmdb_assoc_rec, ptr %40, i32 0, i32 19
  %42 = load i32, ptr %41, align 4
  %43 = call i32 (ptr, i64, ptr, ...) @snprintf(ptr noundef %36, i64 noundef 30, ptr noundef @.str.191, ptr noundef %39, i32 noundef %42) #10
  %44 = load ptr, ptr %5, align 8
  %45 = getelementptr inbounds [30 x i8], ptr %11, i64 0, i64 0
  %46 = call ptr @xstrstr(ptr noundef %44, ptr noundef %45)
  %47 = icmp ne ptr %46, null
  br i1 %47, label %48, label %49

48:                                               ; preds = %35
  store i8 1, ptr %9, align 1
  br label %57

49:                                               ; preds = %35
  %50 = load ptr, ptr %10, align 8
  %51 = getelementptr inbounds nuw %struct.slurmdb_assoc_rec, ptr %50, i32 0, i32 43
  %52 = load ptr, ptr %51, align 8
  %53 = getelementptr inbounds nuw %struct.slurmdb_assoc_usage, ptr %52, i32 0, i32 9
  %54 = load ptr, ptr %53, align 8
  store ptr %54, ptr %10, align 8
  br label %32, !llvm.loop !94

55:                                               ; preds = %32
  br label %27, !llvm.loop !95

56:                                               ; preds = %27
  br label %57

57:                                               ; preds = %56, %48
  %58 = load ptr, ptr %8, align 8
  call void @list_iterator_destroy(ptr noundef %58)
  %59 = load i8, ptr %9, align 1, !range !11, !noundef !12
  %60 = trunc i8 %59 to i1
  store i1 %60, ptr %4, align 1
  store i32 1, ptr %12, align 4
  br label %61

61:                                               ; preds = %57, %23
  call void @llvm.lifetime.end.p0(i64 30, ptr %11) #10
  call void @llvm.lifetime.end.p0(i64 8, ptr %10) #10
  call void @llvm.lifetime.end.p0(i64 1, ptr %9) #10
  call void @llvm.lifetime.end.p0(i64 8, ptr %8) #10
  %62 = load i1, ptr %4, align 1
  ret i1 %62
}