; Function Attrs: nounwind uwtable
define internal fastcc noundef zeroext i1 @_match_user_assoc(ptr noundef %0, ptr noundef %1, i1 noundef zeroext %2) unnamed_addr #0 {
  %4 = alloca [30 x i8], align 16
  call void @llvm.lifetime.start.p0(i64 30, ptr nonnull %4) #19
  %5 = icmp ne ptr %0, null
  %6 = icmp ne ptr %1, null
  %or.cond = and i1 %5, %6
  br i1 %or.cond, label %7, label %23

7:                                                ; preds = %3
  %8 = tail call i32 @list_count(ptr noundef nonnull %1) #19
  %.not = icmp eq i32 %8, 0
  br i1 %.not, label %23, label %9

9:                                                ; preds = %7
  %10 = tail call ptr @list_iterator_create(ptr noundef nonnull %1) #19
  %11 = tail call ptr @list_next(ptr noundef %10) #19
  %.not1826.not = icmp eq ptr %11, null
  br i1 %.not1826.not, label %.loopexit21, label %.preheader.lr.ph

.preheader.lr.ph:                                 ; preds = %9
  %12 = select i1 %2, ptr @.str.153, ptr @.str.144
  br label %.preheader

.loopexit:                                        ; preds = %18
  %13 = call ptr @list_next(ptr noundef %10) #19
  %.not18.not = icmp eq ptr %13, null
  br i1 %.not18.not, label %.loopexit21, label %.preheader.backedge

.preheader:                                       ; preds = %.preheader.backedge, %.preheader.lr.ph
  %.025 = phi ptr [ %11, %.preheader.lr.ph ], [ %.025.be, %.preheader.backedge ]
  %14 = getelementptr inbounds nuw i8, ptr %.025, i64 132
  %15 = load i32, ptr %14, align 4
  %16 = call i32 (ptr, i64, ptr, ...) @snprintf(ptr noundef nonnull dereferenceable(1) %4, i64 noundef 30, ptr noundef nonnull @.str.191, ptr noundef nonnull %12, i32 noundef %15) #19
  %17 = call ptr @xstrstr(ptr noundef nonnull %0, ptr noundef nonnull %4) #19
  %.not20 = icmp ne ptr %17, null
  br i1 %.not20, label %.loopexit21, label %18

18:                                               ; preds = %.preheader
  %19 = getelementptr inbounds nuw i8, ptr %.025, i64 296
  %20 = load ptr, ptr %19, align 8
  %21 = getelementptr inbounds nuw i8, ptr %20, i64 72
  %22 = load ptr, ptr %21, align 8
  %.not19 = icmp eq ptr %22, null
  br i1 %.not19, label %.loopexit, label %.preheader.backedge

.preheader.backedge:                              ; preds = %18, %.loopexit
  %.025.be = phi ptr [ %22, %18 ], [ %13, %.loopexit ]
  br label %.preheader, !llvm.loop !96

.loopexit21:                                      ; preds = %.loopexit, %.preheader, %9
  %.not1824 = phi i1 [ false, %9 ], [ %.not20, %.preheader ], [ %.not20, %.loopexit ]
  call void @list_iterator_destroy(ptr noundef %10) #19
  br label %23

23:                                               ; preds = %3, %7, %.loopexit21
  %.014 = phi i1 [ %.not1824, %.loopexit21 ], [ false, %7 ], [ false, %3 ]
  call void @llvm.lifetime.end.p0(i64 30, ptr nonnull %4) #19
  ret i1 %.014
}